target datalayout = "e-m:e-p270:32:32-p271:32:32-p272:64:64-i64:64-i128:128-f80:128-n8:16:32:64-S128"
target triple = "x86_64-pc-linux-gnu"

%struct._zval_struct = type { %union._zend_value, %union.anon, %union.anon.2 }
%union._zend_value = type { i64 }
%union.anon = type { i32 }
%union.anon.2 = type { i32 }
%struct._zend_refcounted_h = type { i32, %union.anon.3 }
%union.anon.3 = type { i32 }
%struct._zend_execute_data = type { ptr, ptr, ptr, ptr, %struct._zval_struct, ptr, ptr, ptr, ptr }
%struct._zend_string = type { %struct._zend_refcounted_h, i64, i64, [1 x i8] }
%struct.anon.0 = type { i8, i8, %union.anon.1 }
%union.anon.1 = type { i16 }

; Function Attrs: alwaysinline nounwind uwtable
define internal zeroext i8 @zval_get_type(ptr noundef %0) #5 {
  %2 = alloca ptr, align 8
  store ptr %0, ptr %2, align 8, !tbaa !67
  %3 = load ptr, ptr %2, align 8, !tbaa !67
  %4 = getelementptr inbounds nuw %struct._zval_struct, ptr %3, i32 0, i32 1
  %5 = getelementptr inbounds nuw %struct.anon.0, ptr %4, i32 0, i32 0
  %6 = load i8, ptr %5, align 8, !tbaa !31
  ret i8 %6
}

; Function Attrs: alwaysinline nounwind uwtable
define internal zeroext i1 @zend_parse_arg_str_ex(ptr noundef %0, ptr noundef %1, i1 noundef zeroext %2, i32 noundef %3, i1 noundef zeroext %4) #5 {
  %6 = alloca i1, align 1
  %7 = alloca ptr, align 8
  %8 = alloca ptr, align 8
  %9 = alloca i8, align 1
  %10 = alloca i32, align 4
  %11 = alloca i8, align 1
  store ptr %0, ptr %7, align 8, !tbaa !67
  store ptr %1, ptr %8, align 8, !tbaa !77
  %12 = zext i1 %2 to i8
  store i8 %12, ptr %9, align 1, !tbaa !70
  store i32 %3, ptr %10, align 4, !tbaa !4
  %13 = zext i1 %4 to i8
  store i8 %13, ptr %11, align 1, !tbaa !70
  %14 = load ptr, ptr %7, align 8, !tbaa !67
  %15 = call zeroext i8 @zval_get_type(ptr noundef %14)
  %16 = zext i8 %15 to i32
  %17 = icmp eq i32 %16, 6
  %18 = xor i1 %17, true
  %19 = xor i1 %18, true
  %20 = zext i1 %19 to i32
  %21 = sext i32 %20 to i64
  %22 = call i64 @llvm.expect.i64(i64 %21, i64 1)
  %23 = icmp ne i64 %22, 0
  br i1 %23, label %24, label %29

24:                                               ; preds = %5
  %25 = load ptr, ptr %7, align 8, !tbaa !67
  %26 = getelementptr inbounds nuw %struct._zval_struct, ptr %25, i32 0, i32 0
  %27 = load ptr, ptr %26, align 8, !tbaa !31
  %28 = load ptr, ptr %8, align 8, !tbaa !77
  store ptr %27, ptr %28, align 8, !tbaa !32
  br label %53

29:                                               ; preds = %5
  %30 = load i8, ptr %9, align 1, !tbaa !70, !range !71, !noundef !72
  %31 = trunc i8 %30 to i1
  br i1 %31, label %32, label %39

32:                                               ; preds = %29
  %33 = load ptr, ptr %7, align 8, !tbaa !67
  %34 = call zeroext i8 @zval_get_type(ptr noundef %33)
  %35 = zext i8 %34 to i32
  %36 = icmp eq i32 %35, 1
  br i1 %36, label %37, label %39

37:                                               ; preds = %32
  %38 = load ptr, ptr %8, align 8, !tbaa !77
  store ptr null, ptr %38, align 8, !tbaa !32
  br label %52

39:                                               ; preds = %32, %29
  %40 = load i8, ptr %11, align 1, !tbaa !70, !range !71, !noundef !72
  %41 = trunc i8 %40 to i1
  br i1 %41, label %42, label %47

42:                                               ; preds = %39
  %43 = load ptr, ptr %7, align 8, !tbaa !67
  %44 = load ptr, ptr %8, align 8, !tbaa !77
  %45 = load i32, ptr %10, align 4, !tbaa !4
  %46 = call zeroext i1 @zend_flf_parse_arg_str_slow(ptr noundef %43, ptr noundef %44, i32 noundef %45)
  store i1 %46, ptr %6, align 1
  br label %54

47:                                               ; preds = %39
  %48 = load ptr, ptr %7, align 8, !tbaa !67
  %49 = load ptr, ptr %8, align 8, !tbaa !77
  %50 = load i32, ptr %10, align 4, !tbaa !4
  %51 = call zeroext i1 @zend_parse_arg_str_slow(ptr noundef %48, ptr noundef %49, i32 noundef %50)
  store i1 %51, ptr %6, align 1
  br label %54

52:                                               ; preds = %37
  br label %53

53:                                               ; preds = %52, %24
  store i1 true, ptr %6, align 1
  br label %54

54:                                               ; preds = %53, %47, %42
  %55 = load i1, ptr %6, align 1
  ret i1 %55
}

; Function Attrs: alwaysinline nounwind uwtable
define internal zeroext i1 @zend_parse_arg_str(ptr noundef %0, ptr noundef %1, i1 noundef zeroext %2, i32 noundef %3) #5 {
  %5 = alloca ptr, align 8
  %6 = alloca ptr, align 8
  %7 = alloca i8, align 1
  %8 = alloca i32, align 4
  store ptr %0, ptr %5, align 8, !tbaa !67
  store ptr %1, ptr %6, align 8, !tbaa !77
  %9 = zext i1 %2 to i8
  store i8 %9, ptr %7, align 1, !tbaa !70
  store i32 %3, ptr %8, align 4, !tbaa !4
  %10 = load ptr, ptr %5, align 8, !tbaa !67
  %11 = load ptr, ptr %6, align 8, !tbaa !77
  %12 = load i8, ptr %7, align 1, !tbaa !70, !range !71, !noundef !72
  %13 = trunc i8 %12 to i1
  %14 = load i32, ptr %8, align 4, !tbaa !4
  %15 = call zeroext i1 @zend_parse_arg_str_ex(ptr noundef %10, ptr noundef %11, i1 noundef zeroext %13, i32 noundef %14, i1 noundef zeroext false)
  ret i1 %15
}

; Function Attrs: nounwind uwtable
define hidden void @zif_strlen(ptr noundef %0, ptr noundef %1) #0 {
  %3 = alloca ptr, align 8
  %4 = alloca ptr, align 8
  %5 = alloca ptr, align 8
  %6 = alloca i32, align 4
  %7 = alloca i32, align 4
  %8 = alloca i32, align 4
  %9 = alloca i32, align 4
  %10 = alloca i32, align 4
  %11 = alloca ptr, align 8
  %12 = alloca ptr, align 8
  %13 = alloca i32, align 4
  %14 = alloca ptr, align 8
  %15 = alloca i8, align 1
  %16 = alloca i8, align 1
  %17 = alloca i32, align 4
  %18 = alloca i32, align 4
  %19 = alloca ptr, align 8
  store ptr %0, ptr %3, align 8, !tbaa !66
  store ptr %1, ptr %4, align 8, !tbaa !67
  call void @llvm.lifetime.start.p0(i64 8, ptr %5) #14
  br label %20

20:                                               ; preds = %2
  call void @llvm.lifetime.start.p0(i64 4, ptr %6) #14
  store i32 0, ptr %6, align 4, !tbaa !4
  call void @llvm.lifetime.start.p0(i64 4, ptr %7) #14
  store i32 1, ptr %7, align 4, !tbaa !4
  call void @llvm.lifetime.start.p0(i64 4, ptr %8) #14
  store i32 1, ptr %8, align 4, !tbaa !4
  call void @llvm.lifetime.start.p0(i64 4, ptr %9) #14
  %21 = load ptr, ptr %3, align 8, !tbaa !66
  %22 = getelementptr inbounds nuw %struct._zend_execute_data, ptr %21, i32 0, i32 4
  %23 = getelementptr inbounds nuw %struct._zval_struct, ptr %22, i32 0, i32 2
  %24 = load i32, ptr %23, align 4, !tbaa !31
  store i32 %24, ptr %9, align 4, !tbaa !4
  call void @llvm.lifetime.start.p0(i64 4, ptr %10) #14
  store i32 0, ptr %10, align 4, !tbaa !4
  call void @llvm.lifetime.start.p0(i64 8, ptr %11) #14
  call void @llvm.lifetime.start.p0(i64 8, ptr %12) #14
  store ptr null, ptr %12, align 8, !tbaa !67
  call void @llvm.lifetime.start.p0(i64 4, ptr %13) #14
  store i32 0, ptr %13, align 4, !tbaa !4
  call void @llvm.lifetime.start.p0(i64 8, ptr %14) #14
  store ptr null, ptr %14, align 8, !tbaa !69
  call void @llvm.lifetime.start.p0(i64 1, ptr %15) #14
  store i8 0, ptr %15, align 1, !tbaa !70
  call void @llvm.lifetime.start.p0(i64 1, ptr %16) #14
  store i8 0, ptr %16, align 1, !tbaa !70
  call void @llvm.lifetime.start.p0(i64 4, ptr %17) #14
  store i32 0, ptr %17, align 4, !tbaa !4
  br label %25

25:                                               ; preds = %20
  %26 = load i32, ptr %9, align 4, !tbaa !4
  %27 = load i32, ptr %7, align 4, !tbaa !4
  %28 = icmp ult i32 %26, %27
  %29 = xor i1 %28, true
  %30 = xor i1 %29, true
  %31 = zext i1 %30 to i32
  %32 = sext i32 %31 to i64
  %33 = call i64 @llvm.expect.i64(i64 %32, i64 0)
  %34 = icmp ne i64 %33, 0
  br i1 %34, label %45, label %35

35:                                               ; preds = %25
  %36 = load i32, ptr %9, align 4, !tbaa !4
  %37 = load i32, ptr %8, align 4, !tbaa !4
  %38 = icmp ugt i32 %36, %37
  %39 = xor i1 %38, true
  %40 = xor i1 %39, true
  %41 = zext i1 %40 to i32
  %42 = sext i32 %41 to i64
  %43 = call i64 @llvm.expect.i64(i64 %42, i64 0)
  %44 = icmp ne i64 %43, 0
  br i1 %44, label %45, label %48

45:                                               ; preds = %35, %25
  %46 = load i32, ptr %7, align 4, !tbaa !4
  %47 = load i32, ptr %8, align 4, !tbaa !4
  call void @zend_wrong_parameters_count_error(i32 noundef %46, i32 noundef %47)
  store i32 1, ptr %17, align 4, !tbaa !4
  br label %112

48:                                               ; preds = %35
  %49 = load ptr, ptr %3, align 8, !tbaa !66
  %50 = getelementptr inbounds %struct._zval_struct, ptr %49, i64 4
  store ptr %50, ptr %11, align 8, !tbaa !67
  %51 = load i32, ptr %10, align 4, !tbaa !4
  %52 = add i32 %51, 1
  store i32 %52, ptr %10, align 4, !tbaa !4
  %53 = load i32, ptr %10, align 4, !tbaa !4
  %54 = load i32, ptr %7, align 4, !tbaa !4
  %55 = icmp ule i32 %53, %54
  br i1 %55, label %61, label %56

56:                                               ; preds = %48
  %57 = load i8, ptr %16, align 1, !tbaa !70, !range !71, !noundef !72
  %58 = trunc i8 %57 to i1
  %59 = zext i1 %58 to i32
  %60 = icmp eq i32 %59, 1
  br label %61

61:                                               ; preds = %56, %48
  %62 = phi i1 [ true, %48 ], [ %60, %56 ]
  call void @llvm.assume(i1 %62)
  %63 = load i32, ptr %10, align 4, !tbaa !4
  %64 = load i32, ptr %7, align 4, !tbaa !4
  %65 = icmp ugt i32 %63, %64
  br i1 %65, label %71, label %66

66:                                               ; preds = %61
  %67 = load i8, ptr %16, align 1, !tbaa !70, !range !71, !noundef !72
  %68 = trunc i8 %67 to i1
  %69 = zext i1 %68 to i32
  %70 = icmp eq i32 %69, 0
  br label %71

71:                                               ; preds = %66, %61
  %72 = phi i1 [ true, %61 ], [ %70, %66 ]
  call void @llvm.assume(i1 %72)
  %73 = load i8, ptr %16, align 1, !tbaa !70, !range !71, !noundef !72
  %74 = trunc i8 %73 to i1
  br i1 %74, label %75, label %87

75:                                               ; preds = %71
  %76 = load i32, ptr %10, align 4, !tbaa !4
  %77 = load i32, ptr %9, align 4, !tbaa !4
  %78 = icmp ugt i32 %76, %77
  %79 = xor i1 %78, true
  %80 = xor i1 %79, true
  %81 = zext i1 %80 to i32
  %82 = sext i32 %81 to i64
  %83 = call i64 @llvm.expect.i64(i64 %82, i64 0)
  %84 = icmp ne i64 %83, 0
  br i1 %84, label %85, label %86

85:                                               ; preds = %75
  br label %112

86:                                               ; preds = %75
  br label %87

87:                                               ; preds = %86, %71
  %88 = load ptr, ptr %11, align 8, !tbaa !67
  %89 = getelementptr inbounds nuw %struct._zval_struct, ptr %88, i32 1
  store ptr %89, ptr %11, align 8, !tbaa !67
  %90 = load ptr, ptr %11, align 8, !tbaa !67
  store ptr %90, ptr %12, align 8, !tbaa !67
  %91 = load ptr, ptr %12, align 8, !tbaa !67
  %92 = load i32, ptr %10, align 4, !tbaa !4
  %93 = call zeroext i1 @zend_parse_arg_str(ptr noundef %91, ptr noundef %5, i1 noundef zeroext false, i32 noundef %92)
  %94 = xor i1 %93, true
  %95 = xor i1 %94, true
  %96 = xor i1 %95, true
  %97 = zext i1 %96 to i32
  %98 = sext i32 %97 to i64
  %99 = call i64 @llvm.expect.i64(i64 %98, i64 0)
  %100 = icmp ne i64 %99, 0
  br i1 %100, label %101, label %102

101:                                              ; preds = %87
  store i32 4, ptr %13, align 4, !tbaa !4
  store i32 9, ptr %17, align 4, !tbaa !4
  br label %112

102:                                              ; preds = %87
  %103 = load i32, ptr %10, align 4, !tbaa !4
  %104 = load i32, ptr %8, align 4, !tbaa !4
  %105 = icmp eq i32 %103, %104
  br i1 %105, label %109, label %106

106:                                              ; preds = %102
  %107 = load i32, ptr %8, align 4, !tbaa !4
  %108 = icmp eq i32 %107, -1
  br label %109

109:                                              ; preds = %106, %102
  %110 = phi i1 [ true, %102 ], [ %108, %106 ]
  call void @llvm.assume(i1 %110)
  br label %111

111:                                              ; preds = %109
  br label %112

112:                                              ; preds = %111, %101, %85, %45
  %113 = load i32, ptr %17, align 4, !tbaa !4
  %114 = icmp ne i32 %113, 0
  %115 = xor i1 %114, true
  %116 = xor i1 %115, true
  %117 = zext i1 %116 to i32
  %118 = sext i32 %117 to i64
  %119 = call i64 @llvm.expect.i64(i64 %118, i64 0)
  %120 = icmp ne i64 %119, 0
  br i1 %120, label %121, label %127

121:                                              ; preds = %112
  %122 = load i32, ptr %17, align 4, !tbaa !4
  %123 = load i32, ptr %10, align 4, !tbaa !4
  %124 = load ptr, ptr %14, align 8, !tbaa !69
  %125 = load i32, ptr %13, align 4, !tbaa !4
  %126 = load ptr, ptr %12, align 8, !tbaa !67
  call void @zend_wrong_parameter_error(i32 noundef %122, i32 noundef %123, ptr noundef %124, i32 noundef %125, ptr noundef %126)
  store i32 1, ptr %18, align 4
  br label %128

127:                                              ; preds = %112
  store i32 0, ptr %18, align 4
  br label %128

128:                                              ; preds = %127, %121
  call void @llvm.lifetime.end.p0(i64 4, ptr %17) #14
  call void @llvm.lifetime.end.p0(i64 1, ptr %16) #14
  call void @llvm.lifetime.end.p0(i64 1, ptr %15) #14
  call void @llvm.lifetime.end.p0(i64 8, ptr %14) #14
  call void @llvm.lifetime.end.p0(i64 4, ptr %13) #14
  call void @llvm.lifetime.end.p0(i64 8, ptr %12) #14
  call void @llvm.lifetime.end.p0(i64 8, ptr %11) #14
  call void @llvm.lifetime.end.p0(i64 4, ptr %10) #14
  call void @llvm.lifetime.end.p0(i64 4, ptr %9) #14
  call void @llvm.lifetime.end.p0(i64 4, ptr %8) #14
  call void @llvm.lifetime.end.p0(i64 4, ptr %7) #14
  call void @llvm.lifetime.end.p0(i64 4, ptr %6) #14
  %129 = load i32, ptr %18, align 4
  switch i32 %129, label %144 [
    i32 0, label %130
  ]

130:                                              ; preds = %128
  br label %131

131:                                              ; preds = %130
  br label %132

132:                                              ; preds = %131
  br label %133

133:                                              ; preds = %132
  call void @llvm.lifetime.start.p0(i64 8, ptr %19) #14
  %134 = load ptr, ptr %4, align 8, !tbaa !67
  store ptr %134, ptr %19, align 8, !tbaa !67
  %135 = load ptr, ptr %5, align 8, !tbaa !32
  %136 = getelementptr inbounds nuw %struct._zend_string, ptr %135, i32 0, i32 2
  %137 = load i64, ptr %136, align 8, !tbaa !73
  %138 = load ptr, ptr %19, align 8, !tbaa !67
  %139 = getelementptr inbounds nuw %struct._zval_struct, ptr %138, i32 0, i32 0
  store i64 %137, ptr %139, align 8, !tbaa !31
  %140 = load ptr, ptr %19, align 8, !tbaa !67
  %141 = getelementptr inbounds nuw %struct._zval_struct, ptr %140, i32 0, i32 1
  store i32 4, ptr %141, align 8, !tbaa !31
  call void @llvm.lifetime.end.p0(i64 8, ptr %19) #14
  br label %142

142:                                              ; preds = %133
  br label %143

143:                                              ; preds = %142
  store i32 0, ptr %18, align 4
  br label %144

144:                                              ; preds = %143, %128
  call void @llvm.lifetime.end.p0(i64 8, ptr %5) #14
  %145 = load i32, ptr %18, align 4
  switch i32 %145, label %147 [
    i32 0, label %146
    i32 1, label %146
  ]

146:                                              ; preds = %144, %144
  ret void

147:                                              ; preds = %144
  unreachable
}