; Function Attrs: nounwind uwtable
define hidden void @zif_strlen(ptr noundef %0, ptr noundef writeonly captures(none) %1) #0 {
  %3 = alloca ptr, align 8
  call void @llvm.lifetime.start.p0(i64 8, ptr nonnull %3) #14
  %4 = getelementptr inbounds nuw i8, ptr %0, i64 44
  %5 = load i32, ptr %4, align 4, !tbaa !28
  %cond = icmp eq i32 %5, 1
  br i1 %cond, label %6, label %.thread52, !prof !94

.thread52:                                        ; preds = %2
  tail call void @zend_wrong_parameters_count_error(i32 noundef 1, i32 noundef 1) #14
  br label %12

6:                                                ; preds = %2
  %7 = getelementptr inbounds nuw i8, ptr %0, i64 80
  %8 = getelementptr inbounds nuw i8, ptr %0, i64 88
  %9 = load i8, ptr %8, align 8, !tbaa !28
  %10 = icmp eq i8 %9, 6
  br i1 %10, label %.critedge, label %zend_parse_arg_str_ex.exit, !prof !69

zend_parse_arg_str_ex.exit:                       ; preds = %6
  %11 = call zeroext i1 @zend_parse_arg_str_slow(ptr noundef nonnull %7, ptr noundef nonnull %3, i32 noundef 1) #14
  %cond.fr42 = freeze i1 %11
  br i1 %cond.fr42, label %.critedge, label %12, !prof !64

12:                                               ; preds = %zend_parse_arg_str_ex.exit, %.thread52
  %.061 = phi i32 [ 0, %.thread52 ], [ 1, %zend_parse_arg_str_ex.exit ]
  %.03560 = phi i32 [ 1, %.thread52 ], [ 9, %zend_parse_arg_str_ex.exit ]
  %.03659 = phi ptr [ null, %.thread52 ], [ %7, %zend_parse_arg_str_ex.exit ]
  %.03758 = phi i32 [ 0, %.thread52 ], [ 4, %zend_parse_arg_str_ex.exit ]
  call void @zend_wrong_parameter_error(i32 noundef %.03560, i32 noundef %.061, ptr noundef null, i32 noundef %.03758, ptr noundef %.03659) #14
  br label %17

.critedge:                                        ; preds = %zend_parse_arg_str_ex.exit, %6
  %.in = phi ptr [ %7, %6 ], [ %3, %zend_parse_arg_str_ex.exit ]
  %13 = load ptr, ptr %.in, align 8, !tbaa !28
  %14 = getelementptr inbounds nuw i8, ptr %13, i64 16
  %15 = load i64, ptr %14, align 8, !tbaa !65
  store i64 %15, ptr %1, align 8, !tbaa !28
  %16 = getelementptr inbounds nuw i8, ptr %1, i64 8
  store i32 4, ptr %16, align 8, !tbaa !28
  br label %17

17:                                               ; preds = %12, %.critedge
  call void @llvm.lifetime.end.p0(i64 8, ptr nonnull %3) #14
  ret void
}